target datalayout = "e-m:e-p270:32:32-p271:32:32-p272:64:64-i64:64-i128:128-f80:128-n8:16:32:64-S128"
target triple = "x86_64-pc-linux-gnu"

%struct.pmix_class_t = type { ptr, ptr, ptr, ptr, i32, i32, ptr, ptr, i64 }
%struct.pmix_mca_base_framework_t = type { ptr, ptr, ptr, ptr, ptr, ptr, i32, i32, ptr, ptr, i32, i32, %struct.pmix_list_t, %struct.pmix_list_t }
%struct.pmix_list_t = type { %struct.pmix_object_t, %struct.pmix_list_item_t, i64 }
%struct.pmix_object_t = type { %union.pthread_mutex_t, ptr, i32, %struct.pmix_tma }
%union.pthread_mutex_t = type { %struct.__pthread_mutex_s }
%struct.__pthread_mutex_s = type { i32, i32, i32, i32, i32, i16, i16, %struct.__pthread_internal_list }
%struct.__pthread_internal_list = type { ptr, ptr }
%struct.pmix_tma = type { ptr, ptr, ptr, ptr, ptr, ptr, ptr, ptr }
%struct.pmix_list_item_t = type { %struct.pmix_object_t, ptr, ptr, i32 }
%struct.pmix_hash_table_t = type { %struct.pmix_object_t, ptr, ptr, i64, i64, i64, i32, i32, i32, i32, ptr }

@initialized = internal global i8 0, align 1
@pmix_pdl_base_framework = external global %struct.pmix_mca_base_framework_t, align 8
@pmix_mca_base_component_repository = internal global %struct.pmix_hash_table_t zeroinitializer, align 8
@.str.27 = private unnamed_addr constant [21 x i8] c"pthread_mutex_lock()\00", align 1

; Function Attrs: inlinehint nounwind uwtable
define internal void @pmix_tma_free(ptr noundef %0, ptr noundef %1) #6 {
  %3 = alloca ptr, align 8
  %4 = alloca ptr, align 8
  store ptr %0, ptr %3, align 8, !tbaa !57
  store ptr %1, ptr %4, align 8, !tbaa !33
  %5 = load ptr, ptr %3, align 8, !tbaa !57
  %6 = icmp ne ptr null, %5
  br i1 %6, label %7, label %13

7:                                                ; preds = %2
  %8 = load ptr, ptr %3, align 8, !tbaa !57
  %9 = getelementptr inbounds nuw %struct.pmix_tma, ptr %8, i32 0, i32 5
  %10 = load ptr, ptr %9, align 8, !tbaa !99
  %11 = load ptr, ptr %3, align 8, !tbaa !57
  %12 = load ptr, ptr %4, align 8, !tbaa !33
  call void %10(ptr noundef %11, ptr noundef %12)
  br label %15

13:                                               ; preds = %2
  %14 = load ptr, ptr %4, align 8, !tbaa !33
  call void @free(ptr noundef %14) #12
  br label %15

15:                                               ; preds = %13, %7
  ret void
}

; Function Attrs: inlinehint nounwind uwtable
define internal void @pmix_obj_run_destructors(ptr noundef %0) #6 {
  %2 = alloca ptr, align 8
  %3 = alloca ptr, align 8
  store ptr %0, ptr %2, align 8, !tbaa !23
  call void @llvm.lifetime.start.p0(i64 8, ptr %3) #12
  %4 = load ptr, ptr %2, align 8, !tbaa !23
  %5 = getelementptr inbounds nuw %struct.pmix_object_t, ptr %4, i32 0, i32 1
  %6 = load ptr, ptr %5, align 8, !tbaa !53
  %7 = getelementptr inbounds nuw %struct.pmix_class_t, ptr %6, i32 0, i32 7
  %8 = load ptr, ptr %7, align 8, !tbaa !69
  store ptr %8, ptr %3, align 8, !tbaa !33
  br label %9

9:                                                ; preds = %13, %1
  %10 = load ptr, ptr %3, align 8, !tbaa !33
  %11 = load ptr, ptr %10, align 8, !tbaa !33
  %12 = icmp ne ptr null, %11
  br i1 %12, label %13, label %19

13:                                               ; preds = %9
  %14 = load ptr, ptr %3, align 8, !tbaa !33
  %15 = load ptr, ptr %14, align 8, !tbaa !33
  %16 = load ptr, ptr %2, align 8, !tbaa !23
  call void %15(ptr noundef %16)
  %17 = load ptr, ptr %3, align 8, !tbaa !33
  %18 = getelementptr inbounds nuw ptr, ptr %17, i32 1
  store ptr %18, ptr %3, align 8, !tbaa !33
  br label %9, !llvm.loop !70

19:                                               ; preds = %9
  call void @llvm.lifetime.end.p0(i64 8, ptr %3) #12
  ret void
}

; Function Attrs: alwaysinline nounwind uwtable
define internal i32 @pmix_obj_update(ptr noundef %0, i32 noundef %1) #7 {
  %3 = alloca ptr, align 8
  %4 = alloca i32, align 4
  %5 = alloca i32, align 4
  store ptr %0, ptr %3, align 8, !tbaa !23
  store i32 %1, ptr %4, align 4, !tbaa !37
  call void @llvm.lifetime.start.p0(i64 4, ptr %5) #12
  %6 = load ptr, ptr %3, align 8, !tbaa !23
  %7 = getelementptr inbounds nuw %struct.pmix_object_t, ptr %6, i32 0, i32 0
  %8 = call i32 @pthread_mutex_lock(ptr noundef %7) #12
  store i32 %8, ptr %5, align 4, !tbaa !37
  %9 = load i32, ptr %5, align 4, !tbaa !37
  %10 = icmp eq i32 %9, 35
  br i1 %10, label %11, label %14

11:                                               ; preds = %2
  %12 = load i32, ptr %5, align 4, !tbaa !37
  %13 = call ptr @__errno_location() #14
  store i32 %12, ptr %13, align 4, !tbaa !37
  call void @perror(ptr noundef @.str.27)
  call void @abort() #15
  unreachable

14:                                               ; preds = %2
  %15 = load i32, ptr %4, align 4, !tbaa !37
  %16 = load ptr, ptr %3, align 8, !tbaa !23
  %17 = getelementptr inbounds nuw %struct.pmix_object_t, ptr %16, i32 0, i32 2
  %18 = load i32, ptr %17, align 8, !tbaa !54
  %19 = add nsw i32 %18, %15
  store i32 %19, ptr %17, align 8, !tbaa !54
  store i32 %19, ptr %5, align 4, !tbaa !37
  %20 = load ptr, ptr %3, align 8, !tbaa !23
  %21 = getelementptr inbounds nuw %struct.pmix_object_t, ptr %20, i32 0, i32 0
  %22 = call i32 @pthread_mutex_unlock(ptr noundef %21) #12
  %23 = load i32, ptr %5, align 4, !tbaa !37
  call void @llvm.lifetime.end.p0(i64 4, ptr %5) #12
  ret i32 %23
}

; Function Attrs: inlinehint nounwind uwtable
define internal ptr @pmix_list_remove_first(ptr noundef %0) #6 {
  %2 = alloca ptr, align 8
  %3 = alloca ptr, align 8
  %4 = alloca ptr, align 8
  %5 = alloca i32, align 4
  store ptr %0, ptr %3, align 8, !tbaa !38
  call void @llvm.lifetime.start.p0(i64 8, ptr %4) #12
  %6 = load ptr, ptr %3, align 8, !tbaa !38
  %7 = getelementptr inbounds nuw %struct.pmix_list_t, ptr %6, i32 0, i32 2
  %8 = load volatile i64, ptr %7, align 8, !tbaa !98
  %9 = icmp eq i64 0, %8
  br i1 %9, label %10, label %11

10:                                               ; preds = %1
  store ptr null, ptr %2, align 8
  store i32 1, ptr %5, align 4
  br label %34

11:                                               ; preds = %1
  %12 = load ptr, ptr %3, align 8, !tbaa !38
  %13 = getelementptr inbounds nuw %struct.pmix_list_t, ptr %12, i32 0, i32 2
  %14 = load volatile i64, ptr %13, align 8, !tbaa !98
  %15 = add i64 %14, -1
  store volatile i64 %15, ptr %13, align 8, !tbaa !98
  %16 = load ptr, ptr %3, align 8, !tbaa !38
  %17 = getelementptr inbounds nuw %struct.pmix_list_t, ptr %16, i32 0, i32 1
  %18 = getelementptr inbounds nuw %struct.pmix_list_item_t, ptr %17, i32 0, i32 1
  %19 = load ptr, ptr %18, align 8, !tbaa !41
  store ptr %19, ptr %4, align 8, !tbaa !96
  %20 = load ptr, ptr %4, align 8, !tbaa !96
  %21 = getelementptr inbounds nuw %struct.pmix_list_item_t, ptr %20, i32 0, i32 2
  %22 = load volatile ptr, ptr %21, align 8, !tbaa !97
  %23 = load ptr, ptr %4, align 8, !tbaa !96
  %24 = getelementptr inbounds nuw %struct.pmix_list_item_t, ptr %23, i32 0, i32 1
  %25 = load volatile ptr, ptr %24, align 8, !tbaa !43
  %26 = getelementptr inbounds nuw %struct.pmix_list_item_t, ptr %25, i32 0, i32 2
  store volatile ptr %22, ptr %26, align 8, !tbaa !97
  %27 = load ptr, ptr %4, align 8, !tbaa !96
  %28 = getelementptr inbounds nuw %struct.pmix_list_item_t, ptr %27, i32 0, i32 1
  %29 = load volatile ptr, ptr %28, align 8, !tbaa !43
  %30 = load ptr, ptr %3, align 8, !tbaa !38
  %31 = getelementptr inbounds nuw %struct.pmix_list_t, ptr %30, i32 0, i32 1
  %32 = getelementptr inbounds nuw %struct.pmix_list_item_t, ptr %31, i32 0, i32 1
  store ptr %29, ptr %32, align 8, !tbaa !41
  %33 = load ptr, ptr %4, align 8, !tbaa !96
  store ptr %33, ptr %2, align 8
  store i32 1, ptr %5, align 4
  br label %34

34:                                               ; preds = %11, %10
  call void @llvm.lifetime.end.p0(i64 8, ptr %4) #12
  %35 = load ptr, ptr %2, align 8
  ret ptr %35
}

; Function Attrs: nounwind uwtable
define void @pmix_mca_base_component_repository_finalize() #0 {
  %1 = alloca ptr, align 8
  %2 = alloca ptr, align 8
  %3 = alloca ptr, align 8
  %4 = alloca i64, align 8
  %5 = alloca i32, align 4
  %6 = alloca ptr, align 8
  %7 = alloca ptr, align 8
  %8 = alloca ptr, align 8
  %9 = load i8, ptr @initialized, align 1, !tbaa !47, !range !49, !noundef !50
  %10 = trunc i8 %9 to i1
  br i1 %10, label %12, label %11

11:                                               ; preds = %0
  br label %78

12:                                               ; preds = %0
  store i8 0, ptr @initialized, align 1, !tbaa !47
  call void @llvm.lifetime.start.p0(i64 8, ptr %1) #12
  call void @llvm.lifetime.start.p0(i64 8, ptr %2) #12
  call void @llvm.lifetime.start.p0(i64 8, ptr %3) #12
  call void @llvm.lifetime.start.p0(i64 8, ptr %4) #12
  call void @llvm.lifetime.start.p0(i64 4, ptr %5) #12
  %13 = call i32 @pmix_hash_table_get_first_key_ptr(ptr noundef @pmix_mca_base_component_repository, ptr noundef %3, ptr noundef %4, ptr noundef %1, ptr noundef %2)
  store i32 %13, ptr %5, align 4, !tbaa !37
  br label %14

14:                                               ; preds = %70, %12
  %15 = load i32, ptr %5, align 4, !tbaa !37
  %16 = icmp eq i32 0, %15
  br i1 %16, label %17, label %73

17:                                               ; preds = %14
  br label %18

18:                                               ; preds = %17
  call void @llvm.lifetime.start.p0(i64 8, ptr %6) #12
  br label %19

19:                                               ; preds = %45, %18
  %20 = load ptr, ptr %1, align 8, !tbaa !38
  %21 = call ptr @pmix_list_remove_first(ptr noundef %20)
  store ptr %21, ptr %6, align 8, !tbaa !96
  %22 = icmp ne ptr null, %21
  br i1 %22, label %23, label %46

23:                                               ; preds = %19
  br label %24

24:                                               ; preds = %23
  call void @llvm.lifetime.start.p0(i64 8, ptr %7) #12
  %25 = load ptr, ptr %6, align 8, !tbaa !96
  store ptr %25, ptr %7, align 8, !tbaa !23
  %26 = load ptr, ptr %7, align 8, !tbaa !23
  %27 = call i32 @pmix_obj_update(ptr noundef %26, i32 noundef -1)
  %28 = icmp eq i32 0, %27
  br i1 %28, label %29, label %43

29:                                               ; preds = %24
  %30 = load ptr, ptr %7, align 8, !tbaa !23
  call void @pmix_obj_run_destructors(ptr noundef %30)
  %31 = load ptr, ptr %7, align 8, !tbaa !23
  %32 = getelementptr inbounds nuw %struct.pmix_object_t, ptr %31, i32 0, i32 3
  %33 = getelementptr inbounds nuw %struct.pmix_tma, ptr %32, i32 0, i32 5
  %34 = load ptr, ptr %33, align 8, !tbaa !40
  %35 = icmp ne ptr null, %34
  br i1 %35, label %36, label %40

36:                                               ; preds = %29
  %37 = load ptr, ptr %7, align 8, !tbaa !23
  %38 = getelementptr inbounds nuw %struct.pmix_object_t, ptr %37, i32 0, i32 3
  %39 = load ptr, ptr %6, align 8, !tbaa !96
  call void @pmix_tma_free(ptr noundef %38, ptr noundef %39)
  br label %42

40:                                               ; preds = %29
  %41 = load ptr, ptr %6, align 8, !tbaa !96
  call void @free(ptr noundef %41) #12
  br label %42

42:                                               ; preds = %40, %36
  store ptr null, ptr %6, align 8, !tbaa !96
  br label %43

43:                                               ; preds = %42, %24
  call void @llvm.lifetime.end.p0(i64 8, ptr %7) #12
  br label %44

44:                                               ; preds = %43
  br label %45

45:                                               ; preds = %44
  br label %19, !llvm.loop !100

46:                                               ; preds = %19
  br label %47

47:                                               ; preds = %46
  call void @llvm.lifetime.start.p0(i64 8, ptr %8) #12
  %48 = load ptr, ptr %1, align 8, !tbaa !38
  store ptr %48, ptr %8, align 8, !tbaa !23
  %49 = load ptr, ptr %8, align 8, !tbaa !23
  %50 = call i32 @pmix_obj_update(ptr noundef %49, i32 noundef -1)
  %51 = icmp eq i32 0, %50
  br i1 %51, label %52, label %66

52:                                               ; preds = %47
  %53 = load ptr, ptr %8, align 8, !tbaa !23
  call void @pmix_obj_run_destructors(ptr noundef %53)
  %54 = load ptr, ptr %8, align 8, !tbaa !23
  %55 = getelementptr inbounds nuw %struct.pmix_object_t, ptr %54, i32 0, i32 3
  %56 = getelementptr inbounds nuw %struct.pmix_tma, ptr %55, i32 0, i32 5
  %57 = load ptr, ptr %56, align 8, !tbaa !40
  %58 = icmp ne ptr null, %57
  br i1 %58, label %59, label %63

59:                                               ; preds = %52
  %60 = load ptr, ptr %8, align 8, !tbaa !23
  %61 = getelementptr inbounds nuw %struct.pmix_object_t, ptr %60, i32 0, i32 3
  %62 = load ptr, ptr %1, align 8, !tbaa !38
  call void @pmix_tma_free(ptr noundef %61, ptr noundef %62)
  br label %65

63:                                               ; preds = %52
  %64 = load ptr, ptr %1, align 8, !tbaa !38
  call void @free(ptr noundef %64) #12
  br label %65

65:                                               ; preds = %63, %59
  store ptr null, ptr %1, align 8, !tbaa !38
  br label %66

66:                                               ; preds = %65, %47
  call void @llvm.lifetime.end.p0(i64 8, ptr %8) #12
  br label %67

67:                                               ; preds = %66
  br label %68

68:                                               ; preds = %67
  call void @llvm.lifetime.end.p0(i64 8, ptr %6) #12
  br label %69

69:                                               ; preds = %68
  br label %70

70:                                               ; preds = %69
  %71 = load ptr, ptr %2, align 8, !tbaa !33
  %72 = call i32 @pmix_hash_table_get_next_key_ptr(ptr noundef @pmix_mca_base_component_repository, ptr noundef %3, ptr noundef %4, ptr noundef %1, ptr noundef %71, ptr noundef %2)
  store i32 %72, ptr %5, align 4, !tbaa !37
  br label %14, !llvm.loop !101

73:                                               ; preds = %14
  %74 = call i32 @pmix_mca_base_framework_close(ptr noundef @pmix_pdl_base_framework)
  br label %75

75:                                               ; preds = %73
  call void @pmix_obj_run_destructors(ptr noundef @pmix_mca_base_component_repository)
  br label %76

76:                                               ; preds = %75
  br label %77

77:                                               ; preds = %76
  call void @llvm.lifetime.end.p0(i64 4, ptr %5) #12
  call void @llvm.lifetime.end.p0(i64 8, ptr %4) #12
  call void @llvm.lifetime.end.p0(i64 8, ptr %3) #12
  call void @llvm.lifetime.end.p0(i64 8, ptr %2) #12
  call void @llvm.lifetime.end.p0(i64 8, ptr %1) #12
  br label %78

78:                                               ; preds = %77, %11
  ret void
}