; Function Attrs: nounwind uwtable
define void @pmix_mca_base_component_repository_finalize() local_unnamed_addr #1 {
  %1 = alloca ptr, align 8
  %2 = alloca ptr, align 8
  %3 = alloca ptr, align 8
  %4 = alloca i64, align 8
  %.b12 = load i1, ptr @initialized, align 1
  br i1 %.b12, label %5, label %90

5:                                                ; preds = %0
  store i1 false, ptr @initialized, align 1
  call void @llvm.lifetime.start.p0(i64 8, ptr nonnull %1) #15
  call void @llvm.lifetime.start.p0(i64 8, ptr nonnull %2) #15
  call void @llvm.lifetime.start.p0(i64 8, ptr nonnull %3) #15
  call void @llvm.lifetime.start.p0(i64 8, ptr nonnull %4) #15
  %6 = call i32 @pmix_hash_table_get_first_key_ptr(ptr noundef nonnull @pmix_mca_base_component_repository, ptr noundef nonnull %3, ptr noundef nonnull %4, ptr noundef nonnull %1, ptr noundef nonnull %2) #15
  %7 = icmp eq i32 %6, 0
  br i1 %7, label %.preheader, label %._crit_edge31

.preheader:                                       ; preds = %5, %78
  %8 = load ptr, ptr %1, align 8, !tbaa !38
  %9 = getelementptr inbounds nuw i8, ptr %8, i64 264
  %10 = load volatile i64, ptr %9, align 8, !tbaa !47
  %11 = icmp eq i64 %10, 0
  br i1 %11, label %._crit_edge, label %.lr.ph

.lr.ph:                                           ; preds = %.preheader, %47
  %12 = phi ptr [ %49, %47 ], [ %9, %.preheader ]
  %13 = phi ptr [ %48, %47 ], [ %8, %.preheader ]
  %14 = load volatile i64, ptr %12, align 8, !tbaa !47
  %15 = add i64 %14, -1
  store volatile i64 %15, ptr %12, align 8, !tbaa !47
  %16 = getelementptr inbounds nuw i8, ptr %13, i64 240
  %17 = load ptr, ptr %16, align 8, !tbaa !72
  %18 = getelementptr inbounds nuw i8, ptr %17, i64 128
  %19 = load volatile ptr, ptr %18, align 8, !tbaa !46
  %20 = getelementptr inbounds nuw i8, ptr %17, i64 120
  %21 = load volatile ptr, ptr %20, align 8, !tbaa !43
  %22 = getelementptr inbounds nuw i8, ptr %21, i64 128
  store volatile ptr %19, ptr %22, align 8, !tbaa !46
  %23 = load volatile ptr, ptr %20, align 8, !tbaa !43
  store ptr %23, ptr %16, align 8, !tbaa !72
  %24 = call i32 @pthread_mutex_lock(ptr noundef nonnull %17) #15
  %25 = icmp eq i32 %24, 35
  br i1 %25, label %26, label %pmix_obj_update.exit15

26:                                               ; preds = %.lr.ph
  %27 = tail call ptr @__errno_location() #18
  store i32 35, ptr %27, align 4, !tbaa !31
  call void @perror(ptr noundef nonnull @.str.27) #19
  call void @abort() #20
  unreachable

pmix_obj_update.exit15:                           ; preds = %.lr.ph
  %28 = getelementptr inbounds nuw i8, ptr %17, i64 48
  %29 = load i32, ptr %28, align 8, !tbaa !34
  %30 = add nsw i32 %29, -1
  store i32 %30, ptr %28, align 8, !tbaa !34
  %31 = call i32 @pthread_mutex_unlock(ptr noundef nonnull %17) #15
  %32 = icmp eq i32 %30, 0
  br i1 %32, label %33, label %47

33:                                               ; preds = %pmix_obj_update.exit15
  %34 = getelementptr inbounds nuw i8, ptr %17, i64 40
  %35 = load ptr, ptr %34, align 8, !tbaa !33
  %36 = getelementptr inbounds nuw i8, ptr %35, i64 48
  %37 = load ptr, ptr %36, align 8, !tbaa !40
  %38 = load ptr, ptr %37, align 8, !tbaa !36
  %.not6.i = icmp eq ptr %38, null
  br i1 %.not6.i, label %pmix_obj_run_destructors.exit, label %.lr.ph.i

.lr.ph.i:                                         ; preds = %33, %.lr.ph.i
  %39 = phi ptr [ %41, %.lr.ph.i ], [ %38, %33 ]
  %.07.i = phi ptr [ %40, %.lr.ph.i ], [ %37, %33 ]
  call void %39(ptr noundef nonnull %17) #15
  %40 = getelementptr inbounds nuw i8, ptr %.07.i, i64 8
  %41 = load ptr, ptr %40, align 8, !tbaa !36
  %.not.i = icmp eq ptr %41, null
  br i1 %.not.i, label %pmix_obj_run_destructors.exit, label %.lr.ph.i, !llvm.loop !41

pmix_obj_run_destructors.exit:                    ; preds = %.lr.ph.i, %33
  %42 = getelementptr inbounds nuw i8, ptr %17, i64 96
  %43 = load ptr, ptr %42, align 8, !tbaa !42
  %.not14 = icmp eq ptr %43, null
  br i1 %.not14, label %46, label %44

44:                                               ; preds = %pmix_obj_run_destructors.exit
  %45 = getelementptr inbounds nuw i8, ptr %17, i64 56
  call void %43(ptr noundef nonnull %45, ptr noundef nonnull %17) #15
  br label %47

46:                                               ; preds = %pmix_obj_run_destructors.exit
  call void @free(ptr noundef nonnull %17) #15
  br label %47

47:                                               ; preds = %44, %46, %pmix_obj_update.exit15
  %48 = load ptr, ptr %1, align 8, !tbaa !38
  %49 = getelementptr inbounds nuw i8, ptr %48, i64 264
  %50 = load volatile i64, ptr %49, align 8, !tbaa !47
  %51 = icmp eq i64 %50, 0
  br i1 %51, label %._crit_edge, label %.lr.ph, !llvm.loop !73

._crit_edge:                                      ; preds = %47, %.preheader
  %.lcssa = phi ptr [ %8, %.preheader ], [ %48, %47 ]
  %52 = call i32 @pthread_mutex_lock(ptr noundef nonnull %.lcssa) #15
  %53 = icmp eq i32 %52, 35
  br i1 %53, label %54, label %pmix_obj_update.exit

54:                                               ; preds = %._crit_edge
  %55 = tail call ptr @__errno_location() #18
  store i32 35, ptr %55, align 4, !tbaa !31
  call void @perror(ptr noundef nonnull @.str.27) #19
  call void @abort() #20
  unreachable

pmix_obj_update.exit:                             ; preds = %._crit_edge
  %56 = getelementptr inbounds nuw i8, ptr %.lcssa, i64 48
  %57 = load i32, ptr %56, align 8, !tbaa !34
  %58 = add nsw i32 %57, -1
  store i32 %58, ptr %56, align 8, !tbaa !34
  %59 = call i32 @pthread_mutex_unlock(ptr noundef nonnull %.lcssa) #15
  %60 = icmp eq i32 %58, 0
  br i1 %60, label %61, label %78

61:                                               ; preds = %pmix_obj_update.exit
  %62 = getelementptr inbounds nuw i8, ptr %.lcssa, i64 40
  %63 = load ptr, ptr %62, align 8, !tbaa !33
  %64 = getelementptr inbounds nuw i8, ptr %63, i64 48
  %65 = load ptr, ptr %64, align 8, !tbaa !40
  %66 = load ptr, ptr %65, align 8, !tbaa !36
  %.not6.i17 = icmp eq ptr %66, null
  br i1 %.not6.i17, label %pmix_obj_run_destructors.exit21, label %.lr.ph.i18

.lr.ph.i18:                                       ; preds = %61, %.lr.ph.i18
  %67 = phi ptr [ %69, %.lr.ph.i18 ], [ %66, %61 ]
  %.07.i19 = phi ptr [ %68, %.lr.ph.i18 ], [ %65, %61 ]
  call void %67(ptr noundef nonnull %.lcssa) #15
  %68 = getelementptr inbounds nuw i8, ptr %.07.i19, i64 8
  %69 = load ptr, ptr %68, align 8, !tbaa !36
  %.not.i20 = icmp eq ptr %69, null
  br i1 %.not.i20, label %pmix_obj_run_destructors.exit21, label %.lr.ph.i18, !llvm.loop !41

pmix_obj_run_destructors.exit21:                  ; preds = %.lr.ph.i18, %61
  %70 = getelementptr inbounds nuw i8, ptr %.lcssa, i64 96
  %71 = load ptr, ptr %70, align 8, !tbaa !42
  %.not13 = icmp eq ptr %71, null
  br i1 %.not13, label %75, label %72

72:                                               ; preds = %pmix_obj_run_destructors.exit21
  %73 = getelementptr inbounds nuw i8, ptr %.lcssa, i64 56
  %74 = load ptr, ptr %1, align 8, !tbaa !38
  call void %71(ptr noundef nonnull %73, ptr noundef %74) #15
  br label %77

75:                                               ; preds = %pmix_obj_run_destructors.exit21
  %76 = load ptr, ptr %1, align 8, !tbaa !38
  call void @free(ptr noundef %76) #15
  br label %77

77:                                               ; preds = %75, %72
  store ptr null, ptr %1, align 8, !tbaa !38
  br label %78

78:                                               ; preds = %77, %pmix_obj_update.exit
  %79 = load ptr, ptr %2, align 8, !tbaa !36
  %80 = call i32 @pmix_hash_table_get_next_key_ptr(ptr noundef nonnull @pmix_mca_base_component_repository, ptr noundef nonnull %3, ptr noundef nonnull %4, ptr noundef nonnull %1, ptr noundef %79, ptr noundef nonnull %2) #15
  %81 = icmp eq i32 %80, 0
  br i1 %81, label %.preheader, label %._crit_edge31, !llvm.loop !74

._crit_edge31:                                    ; preds = %78, %5
  %82 = call i32 @pmix_mca_base_framework_close(ptr noundef nonnull @pmix_pdl_base_framework) #15
  %83 = load ptr, ptr getelementptr inbounds nuw (i8, ptr @pmix_mca_base_component_repository, i64 40), align 8, !tbaa !33
  %84 = getelementptr inbounds nuw i8, ptr %83, i64 48
  %85 = load ptr, ptr %84, align 8, !tbaa !40
  %86 = load ptr, ptr %85, align 8, !tbaa !36
  %.not6.i23 = icmp eq ptr %86, null
  br i1 %.not6.i23, label %pmix_obj_run_destructors.exit27, label %.lr.ph.i24

.lr.ph.i24:                                       ; preds = %._crit_edge31, %.lr.ph.i24
  %87 = phi ptr [ %89, %.lr.ph.i24 ], [ %86, %._crit_edge31 ]
  %.07.i25 = phi ptr [ %88, %.lr.ph.i24 ], [ %85, %._crit_edge31 ]
  call void %87(ptr noundef nonnull @pmix_mca_base_component_repository) #15
  %88 = getelementptr inbounds nuw i8, ptr %.07.i25, i64 8
  %89 = load ptr, ptr %88, align 8, !tbaa !36
  %.not.i26 = icmp eq ptr %89, null
  br i1 %.not.i26, label %pmix_obj_run_destructors.exit27, label %.lr.ph.i24, !llvm.loop !41

pmix_obj_run_destructors.exit27:                  ; preds = %.lr.ph.i24, %._crit_edge31
  call void @llvm.lifetime.end.p0(i64 8, ptr nonnull %4) #15
  call void @llvm.lifetime.end.p0(i64 8, ptr nonnull %3) #15
  call void @llvm.lifetime.end.p0(i64 8, ptr nonnull %2) #15
  call void @llvm.lifetime.end.p0(i64 8, ptr nonnull %1) #15
  br label %90

90:                                               ; preds = %0, %pmix_obj_run_destructors.exit27
  ret void
}